; Function Attrs: mustprogress nounwind uwtable
define hidden noundef zeroext i1 @_ZN17StackRefCollector14process_framesEP6vframe(ptr nocapture noundef nonnull align 8 dereferenceable(64) %0, ptr noundef %1) local_unnamed_addr #0 align 2 {
  %.not6 = icmp eq ptr %1, null
  br i1 %.not6, label %._crit_edge, label %.lr.ph

.lr.ph:                                           ; preds = %2, %4
  %.07 = phi ptr [ %7, %4 ], [ %1, %2 ]
  %3 = tail call noundef zeroext i1 @_ZN17StackRefCollector8do_frameEP6vframe(ptr noundef nonnull align 8 dereferenceable(64) %0, ptr noundef nonnull %.07)
  br i1 %3, label %4, label %._crit_edge

4:                                                ; preds = %.lr.ph
  %5 = load ptr, ptr %.07, align 8
  %6 = load ptr, ptr %5, align 8
  %7 = tail call noundef ptr %6(ptr noundef nonnull align 8 dereferenceable(5064) %.07) #14
  %.not = icmp eq ptr %7, null
  br i1 %.not, label %._crit_edge, label %.lr.ph, !llvm.loop !30

._crit_edge:                                      ; preds = %.lr.ph, %4, %2
  %.not.lcssa = phi i1 [ true, %2 ], [ %3, %4 ], [ %3, %.lr.ph ]
  ret i1 %.not.lcssa
}